target datalayout = "e-m:e-p270:32:32-p271:32:32-p272:64:64-i64:64-i128:128-f80:128-n8:16:32:64-S128"
target triple = "x86_64-pc-linux-gnu"

%struct.packet_entry_header = type { i32, i32, i16, i16, i16, i16, i8, i8, i8, i8, i16, i16, i64, i64, i64 }
%struct.wtap = type { ptr, ptr, i8, i32, i32, ptr, ptr, ptr, i32, ptr, ptr, ptr, ptr, ptr, ptr, ptr, ptr, ptr, ptr, i32, i32, ptr, ptr, ptr, ptr }
%struct.wtap_rec = type { i32, i32, i32, %struct.nstime_t, i32, %struct.nstime_t, i8, %union.anon, ptr, i8, %struct.Buffer, %struct.Buffer }
%struct.nstime_t = type { i64, i32 }
%union.anon = type { %struct.wtap_packet_header }
%struct.wtap_packet_header = type { i32, i32, i32, i32, %union.wtap_pseudo_header }
%union.wtap_pseudo_header = type { %struct.erf_mc_phdr }
%struct.erf_mc_phdr = type { %struct.erf_phdr, [16 x %struct.erf_ehdr], %union.anon.1 }
%struct.erf_phdr = type { i64, i8, i8, i16, i16, i16 }
%struct.erf_ehdr = type { i64 }
%union.anon.1 = type { i32 }
%struct.Buffer = type { ptr, i64, i64, i64 }

@.str.17 = private unnamed_addr constant [53 x i8] c"Observer: bad record (offset to packet data %d < %d)\00", align 1

; Function Attrs: null_pointer_is_valid sspstrong uwtable
define internal i32 @read_packet_data(ptr noundef %0, i32 noundef %1, i32 noundef %2, ptr noundef %3, ptr noundef %4, ptr noundef %5) #0 {
  %7 = alloca i32, align 4
  %8 = alloca ptr, align 8
  %9 = alloca i32, align 4
  %10 = alloca i32, align 4
  %11 = alloca ptr, align 8
  %12 = alloca ptr, align 8
  %13 = alloca ptr, align 8
  %14 = alloca i32, align 4
  %15 = alloca i32, align 4
  %16 = alloca i32, align 4
  store ptr %0, ptr %8, align 8
  store i32 %1, ptr %9, align 4
  store i32 %2, ptr %10, align 4
  store ptr %3, ptr %11, align 8
  store ptr %4, ptr %12, align 8
  store ptr %5, ptr %13, align 8
  call void @llvm.lifetime.start.p0(i64 4, ptr %14) #12
  call void @llvm.lifetime.start.p0(i64 4, ptr %15) #12
  store i32 0, ptr %15, align 4
  %17 = load i32, ptr %9, align 4
  %18 = load i32, ptr %10, align 4
  %19 = icmp slt i32 %17, %18
  br i1 %19, label %20, label %26

20:                                               ; preds = %6
  %21 = load ptr, ptr %12, align 8
  store i32 -13, ptr %21, align 4
  %22 = load i32, ptr %9, align 4
  %23 = load i32, ptr %10, align 4
  %24 = call noalias ptr (ptr, ptr, ...) @wmem_strdup_printf(ptr noundef null, ptr noundef @.str.17, i32 noundef %22, i32 noundef %23)
  %25 = load ptr, ptr %13, align 8
  store ptr %24, ptr %25, align 8
  store i32 -1, ptr %7, align 4
  store i32 1, ptr %16, align 4
  br label %63

26:                                               ; preds = %6
  %27 = load i32, ptr %9, align 4
  %28 = load i32, ptr %10, align 4
  %29 = sub i32 %27, %28
  store i32 %29, ptr %14, align 4
  %30 = load i32, ptr %14, align 4
  %31 = icmp sgt i32 %30, 0
  br i1 %31, label %32, label %43

32:                                               ; preds = %26
  %33 = load ptr, ptr %8, align 8
  %34 = load i32, ptr %14, align 4
  %35 = load ptr, ptr %12, align 8
  %36 = load ptr, ptr %13, align 8
  %37 = call zeroext i1 @wtap_read_bytes(ptr noundef %33, ptr noundef null, i32 noundef %34, ptr noundef %35, ptr noundef %36)
  br i1 %37, label %39, label %38

38:                                               ; preds = %32
  store i32 -1, ptr %7, align 4
  store i32 1, ptr %16, align 4
  br label %63

39:                                               ; preds = %32
  %40 = load i32, ptr %14, align 4
  %41 = load i32, ptr %15, align 4
  %42 = add i32 %41, %40
  store i32 %42, ptr %15, align 4
  br label %43

43:                                               ; preds = %39, %26
  %44 = load ptr, ptr %8, align 8
  %45 = load ptr, ptr %11, align 8
  %46 = getelementptr inbounds nuw %struct.wtap_rec, ptr %45, i32 0, i32 11
  %47 = load ptr, ptr %11, align 8
  %48 = getelementptr inbounds nuw %struct.wtap_rec, ptr %47, i32 0, i32 7
  %49 = getelementptr inbounds nuw %struct.wtap_packet_header, ptr %48, i32 0, i32 0
  %50 = load i32, ptr %49, align 8
  %51 = load ptr, ptr %12, align 8
  %52 = load ptr, ptr %13, align 8
  %53 = call zeroext i1 @wtap_read_bytes_buffer(ptr noundef %44, ptr noundef %46, i32 noundef %50, ptr noundef %51, ptr noundef %52)
  br i1 %53, label %55, label %54

54:                                               ; preds = %43
  store i32 0, ptr %7, align 4
  store i32 1, ptr %16, align 4
  br label %63

55:                                               ; preds = %43
  %56 = load ptr, ptr %11, align 8
  %57 = getelementptr inbounds nuw %struct.wtap_rec, ptr %56, i32 0, i32 7
  %58 = getelementptr inbounds nuw %struct.wtap_packet_header, ptr %57, i32 0, i32 0
  %59 = load i32, ptr %58, align 8
  %60 = load i32, ptr %15, align 4
  %61 = add i32 %60, %59
  store i32 %61, ptr %15, align 4
  %62 = load i32, ptr %15, align 4
  store i32 %62, ptr %7, align 4
  store i32 1, ptr %16, align 4
  br label %63

63:                                               ; preds = %55, %54, %38, %20
  call void @llvm.lifetime.end.p0(i64 4, ptr %15) #12
  call void @llvm.lifetime.end.p0(i64 4, ptr %14) #12
  %64 = load i32, ptr %7, align 4
  ret i32 %64
}

; Function Attrs: null_pointer_is_valid sspstrong uwtable
define internal zeroext i1 @observer_seek_read(ptr noundef %0, i64 noundef %1, ptr noundef %2, ptr noundef %3, ptr noundef %4) #0 {
  %6 = alloca i1, align 1
  %7 = alloca ptr, align 8
  %8 = alloca i64, align 8
  %9 = alloca ptr, align 8
  %10 = alloca ptr, align 8
  %11 = alloca ptr, align 8
  %12 = alloca ptr, align 8
  %13 = alloca %struct.packet_entry_header, align 8
  %14 = alloca i32, align 4
  %15 = alloca i32, align 4
  %16 = alloca i32, align 4
  store ptr %0, ptr %7, align 8
  store i64 %1, ptr %8, align 8
  store ptr %2, ptr %9, align 8
  store ptr %3, ptr %10, align 8
  store ptr %4, ptr %11, align 8
  call void @llvm.lifetime.start.p0(i64 8, ptr %12) #12
  %17 = load ptr, ptr %9, align 8
  %18 = getelementptr inbounds nuw %struct.wtap_rec, ptr %17, i32 0, i32 7
  %19 = getelementptr inbounds nuw %struct.wtap_packet_header, ptr %18, i32 0, i32 4
  store ptr %19, ptr %12, align 8
  call void @llvm.lifetime.start.p0(i64 48, ptr %13) #12
  call void @llvm.lifetime.start.p0(i64 4, ptr %14) #12
  call void @llvm.lifetime.start.p0(i64 4, ptr %15) #12
  %20 = load ptr, ptr %7, align 8
  %21 = getelementptr inbounds nuw %struct.wtap, ptr %20, i32 0, i32 1
  %22 = load ptr, ptr %21, align 8
  %23 = load i64, ptr %8, align 8
  %24 = load ptr, ptr %10, align 8
  %25 = call i64 @file_seek(ptr noundef %22, i64 noundef %23, i32 noundef 0, ptr noundef %24)
  %26 = icmp eq i64 %25, -1
  br i1 %26, label %27, label %28

27:                                               ; preds = %5
  store i1 false, ptr %6, align 1
  store i32 1, ptr %16, align 4
  br label %63

28:                                               ; preds = %5
  %29 = load ptr, ptr %7, align 8
  %30 = load ptr, ptr %7, align 8
  %31 = getelementptr inbounds nuw %struct.wtap, ptr %30, i32 0, i32 1
  %32 = load ptr, ptr %31, align 8
  %33 = load ptr, ptr %12, align 8
  %34 = load ptr, ptr %10, align 8
  %35 = load ptr, ptr %11, align 8
  %36 = call i32 @read_packet_header(ptr noundef %29, ptr noundef %32, ptr noundef %33, ptr noundef %13, ptr noundef %34, ptr noundef %35)
  store i32 %36, ptr %14, align 4
  %37 = load i32, ptr %14, align 4
  %38 = icmp sle i32 %37, 0
  br i1 %38, label %39, label %40

39:                                               ; preds = %28
  store i1 false, ptr %6, align 1
  store i32 1, ptr %16, align 4
  br label %63

40:                                               ; preds = %28
  %41 = load ptr, ptr %7, align 8
  %42 = load ptr, ptr %9, align 8
  %43 = load ptr, ptr %10, align 8
  %44 = load ptr, ptr %11, align 8
  %45 = call zeroext i1 @process_packet_header(ptr noundef %41, ptr noundef %13, ptr noundef %42, ptr noundef %43, ptr noundef %44)
  br i1 %45, label %47, label %46

46:                                               ; preds = %40
  store i1 false, ptr %6, align 1
  store i32 1, ptr %16, align 4
  br label %63

47:                                               ; preds = %40
  %48 = load ptr, ptr %7, align 8
  %49 = getelementptr inbounds nuw %struct.wtap, ptr %48, i32 0, i32 1
  %50 = load ptr, ptr %49, align 8
  %51 = getelementptr inbounds nuw %struct.packet_entry_header, ptr %13, i32 0, i32 4
  %52 = load i16, ptr %51, align 4
  %53 = zext i16 %52 to i32
  %54 = load i32, ptr %14, align 4
  %55 = load ptr, ptr %9, align 8
  %56 = load ptr, ptr %10, align 8
  %57 = load ptr, ptr %11, align 8
  %58 = call i32 @read_packet_data(ptr noundef %50, i32 noundef %53, i32 noundef %54, ptr noundef %55, ptr noundef %56, ptr noundef %57)
  store i32 %58, ptr %15, align 4
  %59 = load i32, ptr %15, align 4
  %60 = icmp slt i32 %59, 0
  br i1 %60, label %61, label %62

61:                                               ; preds = %47
  store i1 false, ptr %6, align 1
  store i32 1, ptr %16, align 4
  br label %63

62:                                               ; preds = %47
  store i1 true, ptr %6, align 1
  store i32 1, ptr %16, align 4
  br label %63

63:                                               ; preds = %62, %61, %46, %39, %27
  call void @llvm.lifetime.end.p0(i64 4, ptr %15) #12
  call void @llvm.lifetime.end.p0(i64 4, ptr %14) #12
  call void @llvm.lifetime.end.p0(i64 48, ptr %13) #12
  call void @llvm.lifetime.end.p0(i64 8, ptr %12) #12
  %64 = load i1, ptr %6, align 1
  ret i1 %64
}