; Function Attrs: null_pointer_is_valid sspstrong uwtable
define internal noundef zeroext i1 @observer_seek_read(ptr noundef readonly captures(none) %0, i64 noundef %1, ptr noundef %2, ptr noundef %3, ptr noundef %4) #0 {
  %6 = alloca %struct.packet_entry_header, align 8
  call void @llvm.lifetime.start.p0(i64 48, ptr nonnull %6) #14
  %7 = getelementptr inbounds nuw i8, ptr %0, i64 8
  %8 = load ptr, ptr %7, align 8
  %9 = tail call i64 @file_seek(ptr noundef %8, i64 noundef %1, i32 noundef 0, ptr noundef %3)
  %10 = icmp eq i64 %9, -1
  br i1 %10, label %read_packet_data.exit.thread23, label %11

11:                                               ; preds = %5
  %12 = getelementptr inbounds nuw i8, ptr %2, i64 80
  %13 = load ptr, ptr %7, align 8
  %14 = call fastcc i32 @read_packet_header(ptr noundef %0, ptr noundef %13, ptr noundef nonnull %12, ptr noundef nonnull %6, ptr noundef %3, ptr noundef %4)
  %15 = icmp slt i32 %14, 1
  br i1 %15, label %read_packet_data.exit.thread23, label %16

16:                                               ; preds = %11
  %17 = call fastcc zeroext i1 @process_packet_header(ptr noundef %0, ptr noundef nonnull %6, ptr noundef %2, ptr noundef %3, ptr noundef %4)
  br i1 %17, label %18, label %read_packet_data.exit.thread23

18:                                               ; preds = %16
  %19 = load ptr, ptr %7, align 8
  %20 = getelementptr inbounds nuw i8, ptr %6, i64 12
  %21 = load i16, ptr %20, align 4
  %22 = zext i16 %21 to i32
  %23 = icmp samesign ugt i32 %14, %22
  br i1 %23, label %24, label %26

24:                                               ; preds = %18
  store i32 -13, ptr %3, align 4
  %25 = call noalias ptr (ptr, ptr, ...) @wmem_strdup_printf(ptr noundef null, ptr noundef nonnull @.str.17, i32 noundef range(i32 0, 65536) %22, i32 noundef range(i32 1, -2147483648) %14)
  store ptr %25, ptr %4, align 8
  br label %read_packet_data.exit.thread

26:                                               ; preds = %18
  %27 = sub nuw nsw i32 %22, %14
  %.not.i = icmp eq i32 %14, %22
  br i1 %.not.i, label %30, label %28

28:                                               ; preds = %26
  %29 = call zeroext i1 @wtap_read_bytes(ptr noundef %19, ptr noundef null, i32 noundef %27, ptr noundef %3, ptr noundef %4)
  br i1 %29, label %30, label %read_packet_data.exit.thread

30:                                               ; preds = %28, %26
  %31 = getelementptr inbounds nuw i8, ptr %2, i64 280
  %32 = getelementptr inbounds nuw i8, ptr %2, i64 64
  %33 = load i32, ptr %32, align 8
  %34 = call zeroext i1 @wtap_read_bytes_buffer(ptr noundef %19, ptr noundef nonnull %31, i32 noundef %33, ptr noundef %3, ptr noundef %4)
  br i1 %34, label %read_packet_data.exit, label %read_packet_data.exit.thread23

read_packet_data.exit:                            ; preds = %30
  %35 = load i32, ptr %32, align 8
  %36 = add i32 %35, %27
  %.fr = freeze i32 %36
  %37 = icmp slt i32 %.fr, 0
  br i1 %37, label %read_packet_data.exit.thread, label %read_packet_data.exit.thread23

read_packet_data.exit.thread:                     ; preds = %28, %24, %read_packet_data.exit
  br label %read_packet_data.exit.thread23

read_packet_data.exit.thread23:                   ; preds = %30, %read_packet_data.exit.thread, %read_packet_data.exit, %16, %11, %5
  %.0 = phi i1 [ false, %5 ], [ false, %11 ], [ false, %16 ], [ false, %read_packet_data.exit.thread ], [ true, %read_packet_data.exit ], [ true, %30 ]
  call void @llvm.lifetime.end.p0(i64 48, ptr nonnull %6) #14
  ret i1 %.0
}